target datalayout = "e-m:e-p270:32:32-p271:32:32-p272:64:64-i64:64-i128:128-f80:128-n8:16:32:64-S128"
target triple = "x86_64-pc-linux-gnu"

%"struct.arrow::BufferSpan" = type { ptr, i64, ptr }
%"class.arrow::util::span" = type { ptr, i64 }

; Function Attrs: mustprogress nounwind uwtable
define linkonce_odr noundef i64 @_ZNK5arrow4util4spanIKSt10shared_ptrINS_6BufferEEE4sizeEv(ptr noundef nonnull align 8 dereferenceable(16) %0) #3 comdat align 2 {
  %2 = alloca ptr, align 8
  store ptr %0, ptr %2, align 8, !tbaa !98
  %3 = load ptr, ptr %2, align 8
  %4 = getelementptr inbounds nuw %"class.arrow::util::span", ptr %3, i32 0, i32 1
  %5 = load i64, ptr %4, align 8, !tbaa !102
  ret i64 %5
}

; Function Attrs: mustprogress nounwind uwtable
define linkonce_odr noundef ptr @_ZNK5arrow4util4spanIKSt10shared_ptrINS_6BufferEEE4dataEv(ptr noundef nonnull align 8 dereferenceable(16) %0) #3 comdat align 2 {
  %2 = alloca ptr, align 8
  store ptr %0, ptr %2, align 8, !tbaa !98
  %3 = load ptr, ptr %2, align 8
  %4 = getelementptr inbounds nuw %"class.arrow::util::span", ptr %3, i32 0, i32 0
  %5 = load ptr, ptr %4, align 8, !tbaa !100
  ret ptr %5
}

; Function Attrs: mustprogress uwtable
define void @_ZN5arrow8internal19PackVariadicBuffersENS_4util4spanIKSt10shared_ptrINS_6BufferEEEE(ptr dead_on_unwind noalias writable sret(%"struct.arrow::BufferSpan") align 8 %0, ptr %1, i64 %2) #0 {
  %4 = alloca %"class.arrow::util::span", align 8
  %5 = getelementptr inbounds nuw { ptr, i64 }, ptr %4, i32 0, i32 0
  store ptr %1, ptr %5, align 8
  %6 = getelementptr inbounds nuw { ptr, i64 }, ptr %4, i32 0, i32 1
  store i64 %2, ptr %6, align 8
  %7 = getelementptr inbounds nuw %"struct.arrow::BufferSpan", ptr %0, i32 0, i32 0
  %8 = call noundef ptr @_ZNK5arrow4util4spanIKSt10shared_ptrINS_6BufferEEE4dataEv(ptr noundef nonnull align 8 dereferenceable(16) %4)
  store ptr %8, ptr %7, align 8, !tbaa !92
  %9 = getelementptr inbounds nuw %"struct.arrow::BufferSpan", ptr %0, i32 0, i32 1
  %10 = call noundef i64 @_ZNK5arrow4util4spanIKSt10shared_ptrINS_6BufferEEE4sizeEv(ptr noundef nonnull align 8 dereferenceable(16) %4)
  %11 = mul i64 %10, 16
  store i64 %11, ptr %9, align 8, !tbaa !96
  %12 = getelementptr inbounds nuw %"struct.arrow::BufferSpan", ptr %0, i32 0, i32 2
  store ptr null, ptr %12, align 8, !tbaa !97
  ret void
}