; Function Attrs: mustprogress nofree norecurse nosync nounwind willreturn memory(argmem: write) uwtable
define void @_ZN5arrow8internal19PackVariadicBuffersENS_4util4spanIKSt10shared_ptrINS_6BufferEEEE(ptr dead_on_unwind noalias writable writeonly sret(%"struct.arrow::BufferSpan") align 8 captures(none) initializes((0, 24)) %0, ptr %1, i64 %2) local_unnamed_addr #3 {
  store ptr %1, ptr %0, align 8, !tbaa !68
  %4 = getelementptr inbounds nuw i8, ptr %0, i64 8
  %5 = shl i64 %2, 4
  store i64 %5, ptr %4, align 8, !tbaa !91
  %6 = getelementptr inbounds nuw i8, ptr %0, i64 16
  store ptr null, ptr %6, align 8, !tbaa !92
  ret void
}